target datalayout = "e-m:e-p270:32:32-p271:32:32-p272:64:64-i64:64-i128:128-f80:128-n8:16:32:64-S128"
target triple = "x86_64-pc-linux-gnu"

%"class.casadi::MXNode" = type { %"class.casadi::SharedObjectInternal", i64, %"class.std::vector", %"class.casadi::Sparsity" }
%"class.casadi::SharedObjectInternal" = type { %"class.casadi::GenericSharedInternal", i64 }
%"class.casadi::GenericSharedInternal" = type { ptr, ptr }
%"class.std::vector" = type { %"struct.std::_Vector_base" }
%"struct.std::_Vector_base" = type { %"struct.std::_Vector_base<casadi::MX, std::allocator<casadi::MX>>::_Vector_impl" }
%"struct.std::_Vector_base<casadi::MX, std::allocator<casadi::MX>>::_Vector_impl" = type { %"struct.std::_Vector_base<casadi::MX, std::allocator<casadi::MX>>::_Vector_impl_data" }
%"struct.std::_Vector_base<casadi::MX, std::allocator<casadi::MX>>::_Vector_impl_data" = type { ptr, ptr, ptr }
%"class.casadi::Sparsity" = type { %"class.casadi::SharedObject" }
%"class.casadi::SharedObject" = type { %"class.casadi::GenericShared" }
%"class.casadi::GenericShared" = type { ptr }
%"class.casadi::MX" = type { %"class.casadi::SharedObject" }

@.str.14 = private unnamed_addr constant [74 x i8] c"vector::_M_range_check: __n (which is %zu) >= this->size() (which is %zu)\00", align 1

; Function Attrs: mustprogress nounwind uwtable
define linkonce_odr hidden noundef i64 @_ZNKSt6vectorIN6casadi2MXESaIS1_EE4sizeEv(ptr noundef nonnull align 8 dereferenceable(24) %0) #7 comdat align 2 {
  %2 = alloca ptr, align 8
  store ptr %0, ptr %2, align 8, !tbaa !53
  %3 = load ptr, ptr %2, align 8
  %4 = getelementptr inbounds nuw %"struct.std::_Vector_base", ptr %3, i32 0, i32 0
  %5 = getelementptr inbounds nuw %"struct.std::_Vector_base<casadi::MX, std::allocator<casadi::MX>>::_Vector_impl_data", ptr %4, i32 0, i32 1
  %6 = load ptr, ptr %5, align 8, !tbaa !129
  %7 = getelementptr inbounds nuw %"struct.std::_Vector_base", ptr %3, i32 0, i32 0
  %8 = getelementptr inbounds nuw %"struct.std::_Vector_base<casadi::MX, std::allocator<casadi::MX>>::_Vector_impl_data", ptr %7, i32 0, i32 0
  %9 = load ptr, ptr %8, align 8, !tbaa !58
  %10 = ptrtoint ptr %6 to i64
  %11 = ptrtoint ptr %9 to i64
  %12 = sub i64 %10, %11
  %13 = sdiv exact i64 %12, 8
  ret i64 %13
}

; Function Attrs: mustprogress nounwind uwtable
define linkonce_odr hidden noundef nonnull align 8 dereferenceable(8) ptr @_ZNKSt6vectorIN6casadi2MXESaIS1_EEixEm(ptr noundef nonnull align 8 dereferenceable(24) %0, i64 noundef %1) #7 comdat align 2 {
  %3 = alloca ptr, align 8
  %4 = alloca i64, align 8
  store ptr %0, ptr %3, align 8, !tbaa !53
  store i64 %1, ptr %4, align 8, !tbaa !22
  %5 = load ptr, ptr %3, align 8
  %6 = getelementptr inbounds nuw %"struct.std::_Vector_base", ptr %5, i32 0, i32 0
  %7 = getelementptr inbounds nuw %"struct.std::_Vector_base<casadi::MX, std::allocator<casadi::MX>>::_Vector_impl_data", ptr %6, i32 0, i32 0
  %8 = load ptr, ptr %7, align 8, !tbaa !58
  %9 = load i64, ptr %4, align 8, !tbaa !22
  %10 = getelementptr inbounds nuw %"class.casadi::MX", ptr %8, i64 %9
  ret ptr %10
}

; Function Attrs: mustprogress uwtable
define linkonce_odr hidden void @_ZNKSt6vectorIN6casadi2MXESaIS1_EE14_M_range_checkEm(ptr noundef nonnull align 8 dereferenceable(24) %0, i64 noundef %1) #4 comdat align 2 {
  %3 = alloca ptr, align 8
  %4 = alloca i64, align 8
  store ptr %0, ptr %3, align 8, !tbaa !53
  store i64 %1, ptr %4, align 8, !tbaa !22
  %5 = load ptr, ptr %3, align 8
  %6 = load i64, ptr %4, align 8, !tbaa !22
  %7 = call noundef i64 @_ZNKSt6vectorIN6casadi2MXESaIS1_EE4sizeEv(ptr noundef nonnull align 8 dereferenceable(24) %5) #3
  %8 = icmp uge i64 %6, %7
  br i1 %8, label %9, label %12

9:                                                ; preds = %2
  %10 = load i64, ptr %4, align 8, !tbaa !22
  %11 = call noundef i64 @_ZNKSt6vectorIN6casadi2MXESaIS1_EE4sizeEv(ptr noundef nonnull align 8 dereferenceable(24) %5) #3
  call void (ptr, ...) @_ZSt24__throw_out_of_range_fmtPKcz(ptr noundef @.str.14, i64 noundef %10, i64 noundef %11) #15
  unreachable

12:                                               ; preds = %2
  ret void
}

; Function Attrs: mustprogress uwtable
define linkonce_odr hidden noundef nonnull align 8 dereferenceable(8) ptr @_ZNKSt6vectorIN6casadi2MXESaIS1_EE2atEm(ptr noundef nonnull align 8 dereferenceable(24) %0, i64 noundef %1) #4 comdat align 2 {
  %3 = alloca ptr, align 8
  %4 = alloca i64, align 8
  store ptr %0, ptr %3, align 8, !tbaa !53
  store i64 %1, ptr %4, align 8, !tbaa !22
  %5 = load ptr, ptr %3, align 8
  %6 = load i64, ptr %4, align 8, !tbaa !22
  call void @_ZNKSt6vectorIN6casadi2MXESaIS1_EE14_M_range_checkEm(ptr noundef nonnull align 8 dereferenceable(24) %5, i64 noundef %6)
  %7 = load i64, ptr %4, align 8, !tbaa !22
  %8 = call noundef nonnull align 8 dereferenceable(8) ptr @_ZNKSt6vectorIN6casadi2MXESaIS1_EEixEm(ptr noundef nonnull align 8 dereferenceable(24) %5, i64 noundef %7) #3
  ret ptr %8
}

; Function Attrs: mustprogress uwtable
define linkonce_odr hidden noundef nonnull align 8 dereferenceable(8) ptr @_ZNK6casadi6MXNode3depEx(ptr noundef nonnull align 8 dereferenceable(64) %0, i64 noundef %1) #4 comdat align 2 {
  %3 = alloca ptr, align 8
  %4 = alloca i64, align 8
  store ptr %0, ptr %3, align 8, !tbaa !49
  store i64 %1, ptr %4, align 8, !tbaa !51
  %5 = load ptr, ptr %3, align 8
  %6 = getelementptr inbounds nuw %"class.casadi::MXNode", ptr %5, i32 0, i32 2
  %7 = load i64, ptr %4, align 8, !tbaa !51
  %8 = call noundef nonnull align 8 dereferenceable(8) ptr @_ZNKSt6vectorIN6casadi2MXESaIS1_EE2atEm(ptr noundef nonnull align 8 dereferenceable(24) %6, i64 noundef %7)
  ret ptr %8
}

; Function Attrs: mustprogress uwtable
define noundef zeroext i1 @_ZNK6casadi7Reshape14has_duplicatesEv(ptr noundef nonnull align 8 dereferenceable(64) %0) unnamed_addr #4 align 2 {
  %2 = alloca ptr, align 8
  store ptr %0, ptr %2, align 8, !tbaa !3
  %3 = load ptr, ptr %2, align 8
  %4 = call noundef nonnull align 8 dereferenceable(8) ptr @_ZNK6casadi6MXNode3depEx(ptr noundef nonnull align 8 dereferenceable(64) %3, i64 noundef 0)
  %5 = call noundef ptr @_ZNK6casadi2MXptEv(ptr noundef nonnull align 8 dereferenceable(8) %4)
  %6 = load ptr, ptr %5, align 8, !tbaa !12
  %7 = getelementptr inbounds ptr, ptr %6, i64 36
  %8 = load ptr, ptr %7, align 8
  %9 = call noundef zeroext i1 %8(ptr noundef nonnull align 8 dereferenceable(64) %5)
  ret i1 %9
}